target datalayout = "e-m:e-p270:32:32-p271:32:32-p272:64:64-i64:64-i128:128-f80:128-n8:16:32:64-S128"
target triple = "x86_64-pc-linux-gnu"

%union.pthread_mutex_t = type { %struct.__pthread_mutex_s }
%struct.__pthread_mutex_s = type { i32, i32, i32, i32, i32, i16, i16, %struct.__pthread_internal_list }
%struct.__pthread_internal_list = type { ptr, ptr }
%union.pthread_cond_t = type { %struct.__pthread_cond_s }
%struct.__pthread_cond_s = type { %union.__atomic_wide_counter, %union.__atomic_wide_counter, [2 x i32], [2 x i32], i32, i32, [2 x i32] }
%union.__atomic_wide_counter = type { i64 }
%struct.slurm_conf_t = type { i64, ptr, i16, ptr, ptr, ptr, ptr, ptr, i16, ptr, ptr, ptr, ptr, ptr, ptr, ptr, i16, ptr, ptr, ptr, ptr, i16, ptr, ptr, ptr, i64, ptr, ptr, ptr, ptr, i16, ptr, ptr, i16, i32, ptr, i32, ptr, i32, i32, ptr, ptr, i64, i64, ptr, i16, i16, ptr, i32, i32, ptr, i32, ptr, i32, i16, i16, i16, ptr, i16, i16, ptr, ptr, i32, i16, i16, ptr, i32, i16, ptr, ptr, ptr, ptr, i16, ptr, ptr, ptr, ptr, i32, ptr, ptr, ptr, ptr, i16, i16, ptr, i32, i32, i32, i16, i16, ptr, ptr, i16, ptr, ptr, i32, i32, i32, i32, i32, i64, i32, i32, i16, ptr, ptr, i32, ptr, ptr, ptr, i16, i32, ptr, ptr, i16, ptr, ptr, i32, i16, ptr, ptr, ptr, ptr, i32, i32, i16, i16, i32, ptr, i16, ptr, i32, i32, i32, i32, i32, i32, ptr, i16, ptr, ptr, i32, i16, ptr, i32, i16, i16, ptr, ptr, ptr, i16, ptr, ptr, ptr, ptr, i16, i16, ptr, i16, ptr, i16, ptr, i16, ptr, i16, ptr, ptr, ptr, ptr, i16, ptr, ptr, ptr, i32, ptr, i32, ptr, ptr, i16, ptr, ptr, i32, i16, ptr, ptr, i16, i16, ptr, i16, ptr, ptr, ptr, i32, ptr, i16, i16, ptr, ptr, ptr, ptr, ptr, ptr, ptr, ptr, i16, i32, i16, ptr, ptr, ptr, ptr, i32, ptr, ptr, ptr, i16, ptr, ptr, ptr, i16, ptr, i16, ptr, i16, i16, ptr }
%struct.barrier_resp = type { i16, ptr }
%struct.msg_arg = type { ptr, ptr }
%struct.slurm_msg = type { %struct.sockaddr_storage, ptr, i32, i32, i32, i8, i32, i8, i32, ptr, ptr, i32, ptr, ptr, i16, i8, i16, i16, %struct.forward, ptr, %struct.sockaddr_storage, ptr }
%struct.forward = type { %struct.slurm_node_alias_addrs_t, i16, i16, ptr, i32, i16, i16 }
%struct.slurm_node_alias_addrs_t = type { i64, ptr, ptr, i32, ptr }
%struct.sockaddr_storage = type { i16, [118 x i8], i64 }

@agent_mutex = dso_local global %union.pthread_mutex_t zeroinitializer, align 8
@agent_cond = dso_local global %union.pthread_cond_t zeroinitializer, align 8
@agent_cnt = dso_local global i32 0, align 4
@.str = private unnamed_addr constant [13 x i8] c"pmi_server.c\00", align 1
@.str.2 = private unnamed_addr constant [29 x i8] c"%s: pthread_mutex_lock(): %m\00", align 1
@.str.3 = private unnamed_addr constant [31 x i8] c"%s: pthread_mutex_unlock(): %m\00", align 1
@.str.21 = private unnamed_addr constant [26 x i8] c"KVS_Barrier msg to %s:%hu\00", align 1
@slurm_conf = external global %struct.slurm_conf_t, align 8
@.str.22 = private unnamed_addr constant [47 x i8] c"slurm_send_recv_rc_msg_only_one to %s:%hu : %m\00", align 1
@.str.23 = private unnamed_addr constant [35 x i8] c"KVS_Barrier confirm from %s, rc=%d\00", align 1
@__func__._msg_thread = private unnamed_addr constant [12 x i8] c"_msg_thread\00", align 1
@.str.24 = private unnamed_addr constant [36 x i8] c"%s:%d %s: pthread_cond_signal(): %m\00", align 1

; Function Attrs: nounwind uwtable
define internal ptr @_msg_thread(ptr noundef %0) #0 {
  %2 = alloca ptr, align 8
  %3 = alloca ptr, align 8
  %4 = alloca i32, align 4
  %5 = alloca i32, align 4
  %6 = alloca %struct.slurm_msg, align 8
  %7 = alloca i32, align 4
  %8 = alloca i32, align 4
  %9 = alloca i32, align 4
  store ptr %0, ptr %2, align 8
  call void @llvm.lifetime.start.p0(i64 8, ptr %3) #9
  %10 = load ptr, ptr %2, align 8
  store ptr %10, ptr %3, align 8
  call void @llvm.lifetime.start.p0(i64 4, ptr %4) #9
  call void @llvm.lifetime.start.p0(i64 4, ptr %5) #9
  call void @llvm.lifetime.start.p0(i64 424, ptr %6) #9
  call void @slurm_msg_t_init(ptr noundef %6)
  call void @slurm_msg_set_r_uid(ptr noundef %6, i32 noundef -1)
  br label %11

11:                                               ; preds = %1
  br label %12

12:                                               ; preds = %11
  %13 = call i32 @get_log_level()
  %14 = icmp sge i32 %13, 6
  br i1 %14, label %15, label %27

15:                                               ; preds = %12
  %16 = load ptr, ptr %3, align 8
  %17 = getelementptr inbounds nuw %struct.msg_arg, ptr %16, i32 0, i32 0
  %18 = load ptr, ptr %17, align 8
  %19 = getelementptr inbounds nuw %struct.barrier_resp, ptr %18, i32 0, i32 1
  %20 = load ptr, ptr %19, align 8
  %21 = load ptr, ptr %3, align 8
  %22 = getelementptr inbounds nuw %struct.msg_arg, ptr %21, i32 0, i32 0
  %23 = load ptr, ptr %22, align 8
  %24 = getelementptr inbounds nuw %struct.barrier_resp, ptr %23, i32 0, i32 0
  %25 = load i16, ptr %24, align 8
  %26 = zext i16 %25 to i32
  call void (i32, ptr, ...) @log_var(i32 noundef 6, ptr noundef @.str.21, ptr noundef %20, i32 noundef %26)
  br label %27

27:                                               ; preds = %15, %12
  br label %28

28:                                               ; preds = %27
  br label %29

29:                                               ; preds = %28
  br label %30

30:                                               ; preds = %29
  br label %31

31:                                               ; preds = %30
  %32 = getelementptr inbounds nuw %struct.slurm_msg, ptr %6, i32 0, i32 16
  store i16 7204, ptr %32, align 4
  %33 = load ptr, ptr %3, align 8
  %34 = getelementptr inbounds nuw %struct.msg_arg, ptr %33, i32 0, i32 1
  %35 = load ptr, ptr %34, align 8
  %36 = getelementptr inbounds nuw %struct.slurm_msg, ptr %6, i32 0, i32 13
  store ptr %35, ptr %36, align 8
  %37 = getelementptr inbounds nuw %struct.slurm_msg, ptr %6, i32 0, i32 0
  %38 = load ptr, ptr %3, align 8
  %39 = getelementptr inbounds nuw %struct.msg_arg, ptr %38, i32 0, i32 0
  %40 = load ptr, ptr %39, align 8
  %41 = getelementptr inbounds nuw %struct.barrier_resp, ptr %40, i32 0, i32 0
  %42 = load i16, ptr %41, align 8
  %43 = load ptr, ptr %3, align 8
  %44 = getelementptr inbounds nuw %struct.msg_arg, ptr %43, i32 0, i32 0
  %45 = load ptr, ptr %44, align 8
  %46 = getelementptr inbounds nuw %struct.barrier_resp, ptr %45, i32 0, i32 1
  %47 = load ptr, ptr %46, align 8
  call void @slurm_set_addr(ptr noundef %37, i16 noundef zeroext %42, ptr noundef %47)
  %48 = load i16, ptr getelementptr inbounds nuw (%struct.slurm_conf_t, ptr @slurm_conf, i32 0, i32 110), align 8
  %49 = zext i16 %48 to i32
  %50 = mul nsw i32 %49, 1000
  %51 = mul nsw i32 %50, 10
  store i32 %51, ptr %5, align 4
  %52 = load i32, ptr %5, align 4
  %53 = call i32 @slurm_send_recv_rc_msg_only_one(ptr noundef %6, ptr noundef %4, i32 noundef %52)
  %54 = icmp slt i32 %53, 0
  br i1 %54, label %55, label %68

55:                                               ; preds = %31
  %56 = load ptr, ptr %3, align 8
  %57 = getelementptr inbounds nuw %struct.msg_arg, ptr %56, i32 0, i32 0
  %58 = load ptr, ptr %57, align 8
  %59 = getelementptr inbounds nuw %struct.barrier_resp, ptr %58, i32 0, i32 1
  %60 = load ptr, ptr %59, align 8
  %61 = load ptr, ptr %3, align 8
  %62 = getelementptr inbounds nuw %struct.msg_arg, ptr %61, i32 0, i32 0
  %63 = load ptr, ptr %62, align 8
  %64 = getelementptr inbounds nuw %struct.barrier_resp, ptr %63, i32 0, i32 0
  %65 = load i16, ptr %64, align 8
  %66 = zext i16 %65 to i32
  %67 = call i32 (ptr, ...) @error(ptr noundef @.str.22, ptr noundef %60, i32 noundef %66)
  br label %81

68:                                               ; preds = %31
  %69 = load i32, ptr %4, align 4
  %70 = icmp ne i32 %69, 0
  br i1 %70, label %71, label %79

71:                                               ; preds = %68
  %72 = load ptr, ptr %3, align 8
  %73 = getelementptr inbounds nuw %struct.msg_arg, ptr %72, i32 0, i32 0
  %74 = load ptr, ptr %73, align 8
  %75 = getelementptr inbounds nuw %struct.barrier_resp, ptr %74, i32 0, i32 1
  %76 = load ptr, ptr %75, align 8
  %77 = load i32, ptr %4, align 4
  %78 = call i32 (ptr, ...) @error(ptr noundef @.str.23, ptr noundef %76, i32 noundef %77)
  br label %80

79:                                               ; preds = %68
  br label %80

80:                                               ; preds = %79, %71
  br label %81

81:                                               ; preds = %80, %55
  br label %82

82:                                               ; preds = %81
  call void @llvm.lifetime.start.p0(i64 4, ptr %7) #9
  %83 = call i32 @pthread_mutex_lock(ptr noundef @agent_mutex) #9
  store i32 %83, ptr %7, align 4
  %84 = load i32, ptr %7, align 4
  %85 = icmp ne i32 %84, 0
  br i1 %85, label %86, label %89

86:                                               ; preds = %82
  %87 = load i32, ptr %7, align 4
  %88 = call ptr @__errno_location() #10
  store i32 %87, ptr %88, align 4
  call void (ptr, ...) @fatal_abort(ptr noundef @.str.2, ptr noundef @__func__._msg_thread) #11
  unreachable

89:                                               ; preds = %82
  call void @llvm.lifetime.end.p0(i64 4, ptr %7) #9
  br label %90

90:                                               ; preds = %89
  br label %91

91:                                               ; preds = %90
  %92 = load i32, ptr @agent_cnt, align 4
  %93 = add nsw i32 %92, -1
  store i32 %93, ptr @agent_cnt, align 4
  br label %94

94:                                               ; preds = %91
  call void @llvm.lifetime.start.p0(i64 4, ptr %8) #9
  %95 = call i32 @pthread_cond_signal(ptr noundef @agent_cond) #9
  store i32 %95, ptr %8, align 4
  %96 = load i32, ptr %8, align 4
  %97 = icmp ne i32 %96, 0
  br i1 %97, label %98, label %102

98:                                               ; preds = %94
  %99 = load i32, ptr %8, align 4
  %100 = call ptr @__errno_location() #10
  store i32 %99, ptr %100, align 4
  %101 = call i32 (ptr, ...) @error(ptr noundef @.str.24, ptr noundef @.str, i32 noundef 175, ptr noundef @__func__._msg_thread)
  br label %102

102:                                              ; preds = %98, %94
  call void @llvm.lifetime.end.p0(i64 4, ptr %8) #9
  br label %103

103:                                              ; preds = %102
  br label %104

104:                                              ; preds = %103
  br label %105

105:                                              ; preds = %104
  call void @llvm.lifetime.start.p0(i64 4, ptr %9) #9
  %106 = call i32 @pthread_mutex_unlock(ptr noundef @agent_mutex) #9
  store i32 %106, ptr %9, align 4
  %107 = load i32, ptr %9, align 4
  %108 = icmp ne i32 %107, 0
  br i1 %108, label %109, label %112

109:                                              ; preds = %105
  %110 = load i32, ptr %9, align 4
  %111 = call ptr @__errno_location() #10
  store i32 %110, ptr %111, align 4
  call void (ptr, ...) @fatal_abort(ptr noundef @.str.3, ptr noundef @__func__._msg_thread) #11
  unreachable

112:                                              ; preds = %105
  call void @llvm.lifetime.end.p0(i64 4, ptr %9) #9
  br label %113

113:                                              ; preds = %112
  br label %114

114:                                              ; preds = %113
  call void @slurm_xfree(ptr noundef %2)
  call void @llvm.lifetime.end.p0(i64 424, ptr %6) #9
  call void @llvm.lifetime.end.p0(i64 4, ptr %5) #9
  call void @llvm.lifetime.end.p0(i64 4, ptr %4) #9
  call void @llvm.lifetime.end.p0(i64 8, ptr %3) #9
  ret ptr null
}