; Function Attrs: nounwind uwtable
define internal noalias noundef ptr @_msg_thread(ptr noundef %0) #0 {
  %2 = alloca ptr, align 8
  %3 = alloca i32, align 4
  %4 = alloca %struct.slurm_msg, align 8
  store ptr %0, ptr %2, align 8
  call void @llvm.lifetime.start.p0(i64 4, ptr nonnull %3) #12
  call void @llvm.lifetime.start.p0(i64 424, ptr nonnull %4) #12
  call void @slurm_msg_t_init(ptr noundef nonnull %4) #12
  call void @slurm_msg_set_r_uid(ptr noundef nonnull %4, i32 noundef -1) #12
  %5 = call i32 @get_log_level() #12
  %6 = icmp sgt i32 %5, 5
  br i1 %6, label %7, label %13

7:                                                ; preds = %1
  %8 = load ptr, ptr %0, align 8
  %9 = getelementptr inbounds nuw i8, ptr %8, i64 8
  %10 = load ptr, ptr %9, align 8
  %11 = load i16, ptr %8, align 8
  %12 = zext i16 %11 to i32
  call void (i32, ptr, ...) @log_var(i32 noundef 6, ptr noundef nonnull @.str.21, ptr noundef %10, i32 noundef %12) #12
  br label %13

13:                                               ; preds = %7, %1
  %14 = getelementptr inbounds nuw i8, ptr %4, i64 212
  store i16 7204, ptr %14, align 4
  %15 = getelementptr inbounds nuw i8, ptr %0, i64 8
  %16 = load ptr, ptr %15, align 8
  %17 = getelementptr inbounds nuw i8, ptr %4, i64 200
  store ptr %16, ptr %17, align 8
  %18 = load ptr, ptr %0, align 8
  %19 = load i16, ptr %18, align 8
  %20 = getelementptr inbounds nuw i8, ptr %18, i64 8
  %21 = load ptr, ptr %20, align 8
  call void @slurm_set_addr(ptr noundef nonnull %4, i16 noundef zeroext %19, ptr noundef %21) #12
  %22 = load i16, ptr getelementptr inbounds nuw (i8, ptr @slurm_conf, i64 744), align 8
  %23 = zext i16 %22 to i32
  %24 = mul nuw nsw i32 %23, 10000
  %25 = call i32 @slurm_send_recv_rc_msg_only_one(ptr noundef nonnull %4, ptr noundef nonnull %3, i32 noundef %24) #12
  %26 = icmp slt i32 %25, 0
  br i1 %26, label %27, label %34

27:                                               ; preds = %13
  %28 = load ptr, ptr %0, align 8
  %29 = getelementptr inbounds nuw i8, ptr %28, i64 8
  %30 = load ptr, ptr %29, align 8
  %31 = load i16, ptr %28, align 8
  %32 = zext i16 %31 to i32
  %33 = call i32 (ptr, ...) @error(ptr noundef nonnull @.str.22, ptr noundef %30, i32 noundef %32) #12
  br label %41

34:                                               ; preds = %13
  %35 = load i32, ptr %3, align 4
  %.not = icmp eq i32 %35, 0
  br i1 %.not, label %41, label %36

36:                                               ; preds = %34
  %37 = load ptr, ptr %0, align 8
  %38 = getelementptr inbounds nuw i8, ptr %37, i64 8
  %39 = load ptr, ptr %38, align 8
  %40 = call i32 (ptr, ...) @error(ptr noundef nonnull @.str.23, ptr noundef %39, i32 noundef %35) #12
  br label %41

41:                                               ; preds = %27, %34, %36
  %42 = call i32 @pthread_mutex_lock(ptr noundef nonnull @agent_mutex) #12
  %.not17 = icmp eq i32 %42, 0
  br i1 %.not17, label %45, label %43

43:                                               ; preds = %41
  %44 = tail call ptr @__errno_location() #13
  store i32 %42, ptr %44, align 4
  call void (ptr, ...) @fatal_abort(ptr noundef nonnull @.str.2, ptr noundef nonnull @__func__._msg_thread) #14
  unreachable

45:                                               ; preds = %41
  %46 = load i32, ptr @agent_cnt, align 4
  %47 = add nsw i32 %46, -1
  store i32 %47, ptr @agent_cnt, align 4
  %48 = call i32 @pthread_cond_signal(ptr noundef nonnull @agent_cond) #12
  %.not18 = icmp eq i32 %48, 0
  br i1 %.not18, label %52, label %49

49:                                               ; preds = %45
  %50 = tail call ptr @__errno_location() #13
  store i32 %48, ptr %50, align 4
  %51 = call i32 (ptr, ...) @error(ptr noundef nonnull @.str.24, ptr noundef nonnull @.str, i32 noundef 175, ptr noundef nonnull @__func__._msg_thread) #12
  br label %52

52:                                               ; preds = %49, %45
  %53 = call i32 @pthread_mutex_unlock(ptr noundef nonnull @agent_mutex) #12
  %.not19 = icmp eq i32 %53, 0
  br i1 %.not19, label %56, label %54

54:                                               ; preds = %52
  %55 = tail call ptr @__errno_location() #13
  store i32 %53, ptr %55, align 4
  call void (ptr, ...) @fatal_abort(ptr noundef nonnull @.str.3, ptr noundef nonnull @__func__._msg_thread) #14
  unreachable

56:                                               ; preds = %52
  call void @slurm_xfree(ptr noundef nonnull %2) #12
  call void @llvm.lifetime.end.p0(i64 424, ptr nonnull %4) #12
  call void @llvm.lifetime.end.p0(i64 4, ptr nonnull %3) #12
  ret ptr null
}